; Function Attrs: mustprogress uwtable
define void @_ZNK32pxrInternal_v0_24__pxrReserved__31UsdImagingPointInstancerAdapter23GetExtComputationInputsERKNS_7UsdPrimERKNS_7SdfPathEPKNS_26UsdImagingInstancerContextE(ptr dead_on_unwind noalias writable sret(%"class.std::vector.172") align 8 %0, ptr noundef nonnull align 8 dereferenceable(88) %1, ptr noundef nonnull align 8 dereferenceable(32) %2, ptr noundef nonnull align 4 dereferenceable(8) %3, ptr nocapture readnone %4) unnamed_addr #0 align 2 personality ptr @__gxx_personality_v0 {
  %6 = alloca %"class.pxrInternal_v0_24__pxrReserved__::UsdImagingInstancerContext", align 8
  %7 = alloca ptr, align 8
  %8 = alloca %"class.pxrInternal_v0_24__pxrReserved__::UsdPrim", align 8
  call void @llvm.memset.p0.i64(ptr noundef nonnull align 8 dereferenceable(56) %6, i8 0, i64 56, i1 false)
  %9 = invoke noundef zeroext i1 @_ZNK32pxrInternal_v0_24__pxrReserved__31UsdImagingPointInstancerAdapter21_GetProtoPrimForChildERKNS_7UsdPrimERKNS_7SdfPathEPPKNS0_10_ProtoPrimEPNS_26UsdImagingInstancerContextE(ptr noundef nonnull align 8 dereferenceable(88) %1, ptr nonnull align 8 poison, ptr noundef nonnull align 4 dereferenceable(8) %3, ptr noundef nonnull %7, ptr noundef nonnull %6)
          to label %10 unwind label %53

10:                                               ; preds = %5
  br i1 %9, label %11, label %57

11:                                               ; preds = %10
  %12 = load ptr, ptr %7, align 8
  %13 = getelementptr inbounds nuw i8, ptr %12, i64 24
  %14 = load ptr, ptr %13, align 8
  invoke void @_ZNK32pxrInternal_v0_24__pxrReserved__31UsdImagingPointInstancerAdapter16_GetProtoUsdPrimERKNS0_10_ProtoPrimE(ptr dead_on_unwind nonnull writable sret(%"class.pxrInternal_v0_24__pxrReserved__::UsdPrim") align 8 %8, ptr noundef nonnull align 8 dereferenceable(88) %1, ptr noundef nonnull align 8 dereferenceable(53) %12)
          to label %15 unwind label %53

15:                                               ; preds = %11
  %16 = load ptr, ptr %14, align 8
  %17 = getelementptr inbounds i8, ptr %16, i64 456
  %18 = load ptr, ptr %17, align 8
  invoke void %18(ptr dead_on_unwind writable sret(%"class.std::vector.172") align 8 %0, ptr noundef nonnull align 8 dereferenceable(32) %14, ptr noundef nonnull align 8 dereferenceable(32) %8, ptr noundef nonnull align 4 dereferenceable(8) %3, ptr noundef nonnull %6)
          to label %19 unwind label %55

19:                                               ; preds = %15
  %20 = getelementptr inbounds nuw i8, ptr %8, i64 24
  %21 = load ptr, ptr %20, align 8
  %22 = ptrtoint ptr %21 to i64
  %23 = and i64 %22, 7
  %.not.i.i.i.i = icmp eq i64 %23, 0
  br i1 %.not.i.i.i.i, label %_ZN32pxrInternal_v0_24__pxrReserved__7TfTokenD2Ev.exit.i.i, label %24

24:                                               ; preds = %19
  %25 = and i64 %22, -8
  %26 = inttoptr i64 %25 to ptr
  %27 = atomicrmw sub ptr %26, i32 2 release, align 4
  br label %_ZN32pxrInternal_v0_24__pxrReserved__7TfTokenD2Ev.exit.i.i

_ZN32pxrInternal_v0_24__pxrReserved__7TfTokenD2Ev.exit.i.i: ; preds = %24, %19
  %28 = getelementptr inbounds nuw i8, ptr %8, i64 16
  %29 = load i32, ptr %28, align 8
  %.not.i.i1.i.i = icmp eq i32 %29, 0
  br i1 %.not.i.i1.i.i, label %_ZN32pxrInternal_v0_24__pxrReserved__7SdfPathD2Ev.exit.i.i, label %30

30:                                               ; preds = %_ZN32pxrInternal_v0_24__pxrReserved__7TfTokenD2Ev.exit.i.i
  %31 = and i32 %29, 255
  %32 = lshr i32 %29, 8
  %33 = zext nneg i32 %31 to i64
  %34 = getelementptr inbounds [257 x ptr], ptr @_ZN32pxrInternal_v0_24__pxrReserved__8Sdf_PoolINS_15Sdf_PathPrimTagELj24ELj8ELj16384EE13_regionStartsE, i64 0, i64 %33
  %35 = load ptr, ptr %34, align 8
  %36 = mul nuw nsw i32 %32, 24
  %37 = zext nneg i32 %36 to i64
  %38 = getelementptr inbounds i8, ptr %35, i64 %37
  %39 = getelementptr inbounds nuw i8, ptr %38, i64 8
  %40 = atomicrmw sub ptr %39, i32 1 seq_cst, align 4
  %41 = and i32 %40, 2147483647
  %42 = icmp eq i32 %41, 1
  br i1 %42, label %43, label %_ZN32pxrInternal_v0_24__pxrReserved__7SdfPathD2Ev.exit.i.i

43:                                               ; preds = %30
  invoke void @_ZNK32pxrInternal_v0_24__pxrReserved__12Sdf_PathNode8_DestroyEv(ptr noundef nonnull align 8 dereferenceable(16) %38)
          to label %_ZN32pxrInternal_v0_24__pxrReserved__7SdfPathD2Ev.exit.i.i unwind label %44

44:                                               ; preds = %43
  %45 = landingpad { ptr, i32 }
          catch ptr null
  %46 = extractvalue { ptr, i32 } %45, 0
  call void @__clang_call_terminate(ptr %46) #28
  unreachable

_ZN32pxrInternal_v0_24__pxrReserved__7SdfPathD2Ev.exit.i.i: ; preds = %43, %30, %_ZN32pxrInternal_v0_24__pxrReserved__7TfTokenD2Ev.exit.i.i
  %47 = getelementptr inbounds nuw i8, ptr %8, i64 8
  %48 = load ptr, ptr %47, align 8
  %.not.i.i.i.i.i = icmp eq ptr %48, null
  br i1 %.not.i.i.i.i.i, label %_ZN32pxrInternal_v0_24__pxrReserved__7UsdPrimD2Ev.exit, label %49

49:                                               ; preds = %_ZN32pxrInternal_v0_24__pxrReserved__7SdfPathD2Ev.exit.i.i
  %50 = getelementptr inbounds nuw i8, ptr %48, i64 48
  %51 = atomicrmw sub ptr %50, i64 1 release, align 8
  %.not1.i.i.i.i.i = icmp eq i64 %51, 1
  br i1 %.not1.i.i.i.i.i, label %52, label %_ZN32pxrInternal_v0_24__pxrReserved__7UsdPrimD2Ev.exit

52:                                               ; preds = %49
  call void @_ZN32pxrInternal_v0_24__pxrReserved__12Usd_PrimDataD1Ev(ptr noundef nonnull align 8 dereferenceable(64) %48) #26
  call void @_ZdlPvm(ptr noundef nonnull %48, i64 noundef 64) #27
  br label %_ZN32pxrInternal_v0_24__pxrReserved__7UsdPrimD2Ev.exit

53:                                               ; preds = %57, %11, %5
  %54 = landingpad { ptr, i32 }
          cleanup
  br label %58

55:                                               ; preds = %15
  %56 = landingpad { ptr, i32 }
          cleanup
  call void @_ZN32pxrInternal_v0_24__pxrReserved__7UsdPrimD2Ev(ptr noundef nonnull align 8 dereferenceable(32) %8) #26
  br label %58

57:                                               ; preds = %10
  invoke void @_ZNK32pxrInternal_v0_24__pxrReserved__21UsdImagingPrimAdapter23GetExtComputationInputsERKNS_7UsdPrimERKNS_7SdfPathEPKNS_26UsdImagingInstancerContextE(ptr dead_on_unwind writable sret(%"class.std::vector.172") align 8 %0, ptr noundef nonnull align 8 dereferenceable(32) %1, ptr noundef nonnull align 8 dereferenceable(32) %2, ptr noundef nonnull align 4 dereferenceable(8) %3, ptr noundef null)
          to label %_ZN32pxrInternal_v0_24__pxrReserved__7UsdPrimD2Ev.exit unwind label %53

_ZN32pxrInternal_v0_24__pxrReserved__7UsdPrimD2Ev.exit: ; preds = %52, %49, %_ZN32pxrInternal_v0_24__pxrReserved__7SdfPathD2Ev.exit.i.i, %57
  call void @_ZN32pxrInternal_v0_24__pxrReserved__26UsdImagingInstancerContextD2Ev(ptr noundef nonnull align 8 dereferenceable(56) %6) #26
  ret void

58:                                               ; preds = %55, %53
  %.pn = phi { ptr, i32 } [ %56, %55 ], [ %54, %53 ]
  call void @_ZN32pxrInternal_v0_24__pxrReserved__26UsdImagingInstancerContextD2Ev(ptr noundef nonnull align 8 dereferenceable(56) %6) #26
  resume { ptr, i32 } %.pn
}